; Function Attrs: mustprogress uwtable
define hidden void @_ZN6google8protobuf12FieldOptions5ClearEv(ptr noundef nonnull align 8 dereferenceable(88) %0) unnamed_addr #3 align 2 personality ptr @__gxx_personality_v0 {
  %2 = getelementptr inbounds nuw i8, ptr %0, i64 16
  tail call void @_ZN6google8protobuf8internal12ExtensionSet5ClearEv(ptr noundef nonnull align 8 dereferenceable(24) %2)
  %3 = getelementptr inbounds nuw i8, ptr %0, i64 56
  %4 = load i32, ptr %3, align 8, !tbaa !22
  %5 = icmp sgt i32 %4, 0
  br i1 %5, label %6, label %_ZN6google8protobuf16RepeatedPtrFieldINS0_19UninterpretedOptionEE5ClearEv.exit

6:                                                ; preds = %1
  %7 = getelementptr inbounds nuw i8, ptr %0, i64 64
  %8 = load ptr, ptr %7, align 8, !tbaa !18
  %9 = getelementptr inbounds nuw i8, ptr %8, i64 8
  %wide.trip.count.i.i = zext nneg i32 %4 to i64
  br label %10

10:                                               ; preds = %10, %6
  %indvars.iv.i.i = phi i64 [ %indvars.iv.next.i.i, %10 ], [ 0, %6 ]
  %indvars.iv.next.i.i = add nuw nsw i64 %indvars.iv.i.i, 1
  %11 = getelementptr inbounds nuw ptr, ptr %9, i64 %indvars.iv.i.i
  %12 = load ptr, ptr %11, align 8, !tbaa !27
  tail call void @_ZN6google8protobuf19UninterpretedOption5ClearEv(ptr noundef nonnull align 8 dereferenceable(96) %12)
  %exitcond.not.i.i = icmp eq i64 %indvars.iv.next.i.i, %wide.trip.count.i.i
  br i1 %exitcond.not.i.i, label %13, label %10, !llvm.loop !94

13:                                               ; preds = %10
  store i32 0, ptr %3, align 8, !tbaa !22
  br label %_ZN6google8protobuf16RepeatedPtrFieldINS0_19UninterpretedOptionEE5ClearEv.exit

_ZN6google8protobuf16RepeatedPtrFieldINS0_19UninterpretedOptionEE5ClearEv.exit: ; preds = %1, %13
  %14 = getelementptr inbounds nuw i8, ptr %0, i64 40
  %15 = load i32, ptr %14, align 8, !tbaa !58
  %16 = and i32 %15, 63
  %.not = icmp eq i32 %16, 0
  br i1 %.not, label %19, label %17

17:                                               ; preds = %_ZN6google8protobuf16RepeatedPtrFieldINS0_19UninterpretedOptionEE5ClearEv.exit
  %18 = getelementptr inbounds nuw i8, ptr %0, i64 72
  tail call void @llvm.memset.p0.i64(ptr noundef nonnull align 8 dereferenceable(12) %18, i8 0, i64 12, i1 false)
  br label %19

19:                                               ; preds = %17, %_ZN6google8protobuf16RepeatedPtrFieldINS0_19UninterpretedOptionEE5ClearEv.exit
  store i32 0, ptr %14, align 8
  %20 = getelementptr inbounds nuw i8, ptr %0, i64 8
  %21 = load i64, ptr %20, align 8, !tbaa !8
  %22 = and i64 %21, 1
  %.not1 = icmp eq i64 %22, 0
  br i1 %.not1, label %_ZN6google8protobuf8internal16InternalMetadata5ClearINS0_15UnknownFieldSetEEEvv.exit, label %23

23:                                               ; preds = %19
  tail call void @_ZN6google8protobuf8internal16InternalMetadata7DoClearINS0_15UnknownFieldSetEEEvv(ptr noundef nonnull align 8 dereferenceable(8) %20)
  br label %_ZN6google8protobuf8internal16InternalMetadata5ClearINS0_15UnknownFieldSetEEEvv.exit

_ZN6google8protobuf8internal16InternalMetadata5ClearINS0_15UnknownFieldSetEEEvv.exit: ; preds = %19, %23
  ret void
}